Certificate:
    Data:
        Version: 3 (0x2)
        Serial Number: 1 (0x1)
    Signature Algorithm: sha1WithRSAEncryption
        Issuer: DC=tech, DC=sourced, O=Sourced, OU=Sourced Root CA, CN=Sourced Root CA
        Validity
            Not Before: Jul  1 08:59:01 2019 GMT
            Not After : Jun 30 08:59:01 2029 GMT
        Subject: DC=tech, DC=sourced, O=Sourced, OU=Sourced Root CA, CN=Sourced Root CA
        Subject Public Key Info:
            Public Key Algorithm: rsaEncryption
                Public-Key: (2048 bit)
                Modulus:
                    00:d5:47:b8:81:55:9c:f1:14:2c:8b:fc:a8:5f:8c:
                    d9:c7:74:75:5e:1c:0e:9f:a6:8f:09:73:30:0c:01:
                    cb:ae:37:9e:38:95:a6:9f:2a:de:b2:18:95:e7:28:
                    0a:a4:e2:a5:42:7c:0a:ec:f9:af:73:5f:c2:84:4f:
                    5d:e0:fd:47:3c:89:3d:e9:f0:fb:4b:7d:ab:3c:64:
                    26:11:85:2c:83:9c:31:bc:26:ae:dd:3d:f1:a9:af:
                    72:0a:75:38:59:36:f7:b3:d1:e3:98:af:f5:16:e2:
                    ae:56:eb:1c:48:cd:a1:aa:af:03:a3:20:ac:8f:03:
                    9b:dc:71:e6:8e:37:f3:29:de:d6:2b:06:d3:1e:28:
                    a1:1c:fe:c6:9b:bc:d5:e3:59:5a:16:49:4e:eb:d4:
                    01:a8:35:f0:38:eb:15:0d:ce:2f:ea:b2:d5:f3:1f:
                    37:4f:7c:84:ec:bb:a2:94:e0:9e:39:0c:5b:49:d9:
                    ca:87:2b:62:91:6d:21:bc:b5:02:56:80:2e:ba:cc:
                    0b:cf:12:b2:a1:32:a4:da:35:79:c5:96:90:0c:4c:
                    f0:f9:09:6d:92:29:a6:6f:54:a5:b0:77:da:05:d6:
                    cd:5d:46:22:6c:da:18:a1:f9:a3:21:c3:c9:e0:5a:
                    b8:98:51:18:c9:06:4b:7d:42:05:36:c1:c1:49:a3:
                    4d:4d
                Exponent: 65537 (0x10001)
        X509v3 extensions:
            X509v3 Key Usage: critical
                Certificate Sign, CRL Sign
            X509v3 Basic Constraints: critical
                CA:TRUE
            X509v3 Subject Key Identifier: 
                16:74:D5:88:CF:A2:E2:96:8D:35:A7:C5:67:87:61:AE:74:A6:81:9A
            X509v3 Authority Key Identifier: 
                keyid:16:74:D5:88:CF:A2:E2:96:8D:35:A7:C5:67:87:61:AE:74:A6:81:9A

    Signature Algorithm: sha1WithRSAEncryption
         5e:83:d9:91:d1:b5:b8:6e:fc:70:08:86:ab:e6:a2:67:ea:de:
         0e:94:74:32:01:aa:ea:d7:28:fb:be:f2:3d:9e:1a:5c:72:a4:
         97:cd:78:04:a4:58:23:88:05:06:3a:29:a3:ed:65:5f:66:35:
         21:87:29:af:cd:2f:79:b4:82:a7:47:85:ae:79:cf:ad:8d:06:
         19:57:56:12:39:12:22:f5:51:48:53:06:53:16:a7:30:5e:90:
         a6:d1:0f:36:4c:b0:e8:9c:e0:2b:ac:97:f0:07:9d:48:6b:a6:
         2f:ae:b2:72:18:0d:a9:b2:32:7c:27:b1:8f:c9:d3:09:e7:0e:
         a5:80:c8:64:e1:20:d1:58:23:80:a7:00:8a:05:ba:b8:63:a1:
         f1:a8:2b:4c:d6:ea:41:4d:87:21:71:18:80:64:1a:5b:a2:c7:
         0c:43:76:8e:d7:d4:03:cc:ef:83:be:68:bb:a6:ce:c4:31:d6:
         97:df:cc:db:9d:ff:7f:ee:36:78:b5:79:42:72:e8:49:6f:1e:
         ea:d4:77:d7:f2:ba:a6:88:71:91:23:ee:b0:4c:c0:01:f3:27:
         bf:12:9d:d4:1e:e1:a4:24:cd:67:9d:c5:58:28:1e:7e:a7:e9:
         84:2c:21:9b:97:67:b2:e8:e5:10:5c:d4:7d:d1:c7:95:7f:ac:
         f1:ad:96:e4
-----BEGIN CERTIFICATE-----
MIIDyDCCArCgAwIBAgIBATANBgkqhkiG9w0BAQUFADB1MRQwEgYKCZImiZPyLGQB
GRYEdGVjaDEXMBUGCgmSJomT8ixkARkWB3NvdXJjZWQxEDAOBgNVBAoMB1NvdXJj
ZWQxGDAWBgNVBAsMD1NvdXJjZWQgUm9vdCBDQTEYMBYGA1UEAwwPU291cmNlZCBS
b290IENBMB4XDTE5MDcwMTA4NTkwMVoXDTI5MDYzMDA4NTkwMVowdTEUMBIGCgmS
JomT8ixkARkWBHRlY2gxFzAVBgoJkiaJk/IsZAEZFgdzb3VyY2VkMRAwDgYDVQQK
DAdTb3VyY2VkMRgwFgYDVQQLDA9Tb3VyY2VkIFJvb3QgQ0ExGDAWBgNVBAMMD1Nv
dXJjZWQgUm9vdCBDQTCCASIwDQYJKoZIhvcNAQEBBQADggEPADCCAQoCggEBANVH
uIFVnPEULIv8qF+M2cd0dV4cDp+mjwlzMAwBy643njiVpp8q3rIYlecoCqTipUJ8
Cuz5r3NfwoRPXeD9RzyJPenw+0t9qzxkJhGFLIOcMbwmrt098amvcgp1OFk297PR
45iv9RbirlbrHEjNoaqvA6MgrI8Dm9xx5o438yne1isG0x4ooRz+xpu81eNZWhZJ
TuvUAag18DjrFQ3OL+qy1fMfN098hOy7opTgnjkMW0nZyocrYpFtIby1AlaALrrM
C88SsqEypNo1ecWWkAxM8PkJbZIppm9UpbB32gXWzV1GImzaGKH5oyHDyeBauJhR
GMkGS31CBTbBwUmjTU0CAwEAAaNjMGEwDgYDVR0PAQH/BAQDAgEGMA8GA1UdEwEB
/wQFMAMBAf8wHQYDVR0OBBYEFBZ01YjPouKWjTWnxWeHYa50poGaMB8GA1UdIwQY
MBaAFBZ01YjPouKWjTWnxWeHYa50poGaMA0GCSqGSIb3DQEBBQUAA4IBAQBeg9mR
0bW4bvxwCIar5qJn6t4OlHQyAarq1yj7vvI9nhpccqSXzXgEpFgjiAUGOimj7WVf
ZjUhhymvzS95tIKnR4Wuec+tjQYZV1YSORIi9VFIUwZTFqcwXpCm0Q82TLDonOAr
rJfwB51Ia6YvrrJyGA2psjJ8J7GPydMJ5w6lgMhk4SDRWCOApwCKBbq4Y6HxqCtM
1upBTYchcRiAZBpboscMQ3aO19QDzO+Dvmi7ps7EMdaX38zbnf9/7jZ4tXlCcuhJ
bx7q1HfX8rqmiHGRI+6wTMAB8ye/Ep3UHuGkJM1nncVYKB5+p+mELCGbl2ey6OUQ
XNR90ceVf6zxrZbk
-----END CERTIFICATE-----
