Certificate:
    Data:
        Version: 3 (0x2)
        Serial Number: 2 (0x2)
    Signature Algorithm: sha1WithRSAEncryption
        Issuer: DC=tech, DC=sourced, O=Sourced, OU=Sourced Root CA, CN=Sourced Root CA
        Validity
            Not Before: Jul  1 08:59:14 2019 GMT
            Not After : Jun 30 08:59:14 2029 GMT
        Subject: DC=tech, DC=sourced, O=Sourced, OU=Sourced Signing CA, CN=Sourced Signing CA
        Subject Public Key Info:
            Public Key Algorithm: rsaEncryption
                Public-Key: (2048 bit)
                Modulus:
                    00:c6:e8:66:22:a1:fd:0c:8e:62:8c:86:38:0f:35:
                    4c:01:43:25:57:a8:57:64:11:76:ee:ee:ac:7a:3c:
                    0d:70:07:ad:8f:6a:b2:cc:44:de:9e:c5:25:4b:88:
                    6e:d3:fd:78:ee:fe:18:d9:af:9a:0c:95:59:be:79:
                    97:62:0d:d3:78:d8:dc:3f:97:ab:b0:5b:c6:1e:60:
                    fb:6e:49:2c:28:66:77:b8:3c:22:65:6e:61:0f:07:
                    3a:5a:66:b4:5f:3a:fa:2a:76:c0:e4:24:f3:ec:d0:
                    80:67:4c:d2:09:01:63:55:7a:bc:b7:20:7f:af:94:
                    6b:10:f4:d1:55:74:70:c0:29:aa:71:0e:d3:da:8b:
                    5c:32:31:70:75:0b:62:47:0b:2e:01:cc:9b:b9:00:
                    eb:77:1c:c2:8f:d3:ab:6c:a9:b6:c3:67:93:c7:f7:
                    59:f0:7b:5f:ff:c4:28:3b:1c:84:5d:51:a5:90:8a:
                    f3:b4:6c:fb:24:55:97:00:28:99:53:25:57:7b:8d:
                    a9:9c:4f:20:93:ef:a8:cd:a6:9e:9e:be:c0:72:39:
                    a5:c2:a7:ae:3b:b0:38:a1:96:d0:86:15:1e:89:e2:
                    30:75:f7:ef:5d:fa:20:c2:10:16:77:d6:a9:7a:70:
                    94:92:67:52:89:01:0e:7d:7b:50:4a:e4:ab:e7:c4:
                    a8:7b
                Exponent: 65537 (0x10001)
        X509v3 extensions:
            X509v3 Key Usage: critical
                Certificate Sign, CRL Sign
            X509v3 Basic Constraints: critical
                CA:TRUE, pathlen:0
            X509v3 Subject Key Identifier: 
                3F:EA:B4:2B:81:A0:A4:7A:0C:8D:C3:C4:B0:47:E3:F1:7D:08:D8:F1
            X509v3 Authority Key Identifier: 
                keyid:16:74:D5:88:CF:A2:E2:96:8D:35:A7:C5:67:87:61:AE:74:A6:81:9A

    Signature Algorithm: sha1WithRSAEncryption
         84:08:5f:b2:ba:ec:d0:28:eb:33:96:04:13:7c:be:33:86:2d:
         d4:79:6a:dd:a0:97:87:06:96:3e:eb:0d:29:91:06:7f:94:9e:
         72:97:4a:0e:bc:24:c2:64:69:95:c5:8a:27:1d:4a:fa:a1:11:
         73:20:5a:3d:39:46:31:8c:47:69:5f:4b:ed:08:c8:1b:6f:39:
         ff:ea:4c:c5:94:0d:b6:c3:4f:15:e6:3a:d2:07:b4:4b:11:5c:
         9f:05:a9:41:7e:11:d8:89:22:46:a2:8e:c1:a7:f2:b8:45:e7:
         38:eb:a8:34:3a:e6:43:6e:8f:ea:bf:1b:1d:07:87:e3:22:93:
         4d:5f:20:6c:fc:11:92:ee:37:2a:1e:b3:47:ed:64:5c:d4:30:
         0a:11:43:f3:ef:bb:da:4b:48:b9:25:d2:95:05:5d:16:00:5c:
         bb:18:eb:9f:30:f9:dd:28:31:7a:57:cf:da:a9:52:c7:97:ef:
         d8:42:71:43:43:cb:8e:65:93:0f:81:c7:1d:30:dd:58:df:ac:
         f3:9c:9e:03:cb:77:fe:0e:2e:39:d5:ab:3d:b1:63:b8:37:c7:
         b2:6f:a6:14:e3:0a:41:20:45:e2:62:11:39:7a:33:cb:9f:59:
         12:36:e1:f9:1f:b2:ba:ef:55:45:fe:51:d9:f3:07:77:17:ab:
         b3:09:cb:f4
-----BEGIN CERTIFICATE-----
MIID0TCCArmgAwIBAgIBAjANBgkqhkiG9w0BAQUFADB1MRQwEgYKCZImiZPyLGQB
GRYEdGVjaDEXMBUGCgmSJomT8ixkARkWB3NvdXJjZWQxEDAOBgNVBAoMB1NvdXJj
ZWQxGDAWBgNVBAsMD1NvdXJjZWQgUm9vdCBDQTEYMBYGA1UEAwwPU291cmNlZCBS
b290IENBMB4XDTE5MDcwMTA4NTkxNFoXDTI5MDYzMDA4NTkxNFowezEUMBIGCgmS
JomT8ixkARkWBHRlY2gxFzAVBgoJkiaJk/IsZAEZFgdzb3VyY2VkMRAwDgYDVQQK
DAdTb3VyY2VkMRswGQYDVQQLDBJTb3VyY2VkIFNpZ25pbmcgQ0ExGzAZBgNVBAMM
ElNvdXJjZWQgU2lnbmluZyBDQTCCASIwDQYJKoZIhvcNAQEBBQADggEPADCCAQoC
ggEBAMboZiKh/QyOYoyGOA81TAFDJVeoV2QRdu7urHo8DXAHrY9qssxE3p7FJUuI
btP9eO7+GNmvmgyVWb55l2IN03jY3D+Xq7Bbxh5g+25JLChmd7g8ImVuYQ8HOlpm
tF86+ip2wOQk8+zQgGdM0gkBY1V6vLcgf6+UaxD00VV0cMApqnEO09qLXDIxcHUL
YkcLLgHMm7kA63ccwo/Tq2yptsNnk8f3WfB7X//EKDschF1RpZCK87Rs+yRVlwAo
mVMlV3uNqZxPIJPvqM2mnp6+wHI5pcKnrjuwOKGW0IYVHoniMHX37136IMIQFnfW
qXpwlJJnUokBDn17UErkq+fEqHsCAwEAAaNmMGQwDgYDVR0PAQH/BAQDAgEGMBIG
A1UdEwEB/wQIMAYBAf8CAQAwHQYDVR0OBBYEFD/qtCuBoKR6DI3DxLBH4/F9CNjx
MB8GA1UdIwQYMBaAFBZ01YjPouKWjTWnxWeHYa50poGaMA0GCSqGSIb3DQEBBQUA
A4IBAQCECF+yuuzQKOszlgQTfL4zhi3UeWrdoJeHBpY+6w0pkQZ/lJ5yl0oOvCTC
ZGmVxYonHUr6oRFzIFo9OUYxjEdpX0vtCMgbbzn/6kzFlA22w08V5jrSB7RLEVyf
BalBfhHYiSJGoo7Bp/K4Rec466g0OuZDbo/qvxsdB4fjIpNNXyBs/BGS7jcqHrNH
7WRc1DAKEUPz77vaS0i5JdKVBV0WAFy7GOufMPndKDF6V8/aqVLHl+/YQnFDQ8uO
ZZMPgccdMN1Y36zznJ4Dy3f+Di451as9sWO4N8eyb6YU4wpBIEXiYhE5ejPLn1kS
NuH5H7K671VF/lHZ8wd3F6uzCcv0
-----END CERTIFICATE-----
